target datalayout = "e-m:e-p270:32:32-p271:32:32-p272:64:64-i64:64-i128:128-f80:128-n8:16:32:64-S128"
target triple = "x86_64-pc-linux-gnu"

%struct.Settings = type { i32, %"class.cv::Size_", %"class.cv::Size_", %"class.cv::Size_", float, i32 }
%"class.cv::Size_" = type { i32, i32 }

; Function Attrs: inlinehint mustprogress nounwind uwtable
define linkonce_odr hidden void @_ZN2cv5Size_IiEC2Eii(ptr noundef nonnull align 4 dereferenceable(8) %0, i32 noundef %1, i32 noundef %2) unnamed_addr #8 comdat align 2 {
  %4 = alloca ptr, align 8
  %5 = alloca i32, align 4
  %6 = alloca i32, align 4
  store ptr %0, ptr %4, align 8, !tbaa !60
  store i32 %1, ptr %5, align 4, !tbaa !4
  store i32 %2, ptr %6, align 4, !tbaa !4
  %7 = load ptr, ptr %4, align 8
  %8 = getelementptr inbounds nuw %"class.cv::Size_", ptr %7, i32 0, i32 0
  %9 = load i32, ptr %5, align 4, !tbaa !4
  store i32 %9, ptr %8, align 4, !tbaa !62
  %10 = getelementptr inbounds nuw %"class.cv::Size_", ptr %7, i32 0, i32 1
  %11 = load i32, ptr %6, align 4, !tbaa !4
  store i32 %11, ptr %10, align 4, !tbaa !63
  ret void
}

; Function Attrs: inlinehint mustprogress nounwind uwtable
define linkonce_odr hidden void @_ZN2cv5Size_IiEC2Ev(ptr noundef nonnull align 4 dereferenceable(8) %0) unnamed_addr #8 comdat align 2 {
  %2 = alloca ptr, align 8
  store ptr %0, ptr %2, align 8, !tbaa !60
  %3 = load ptr, ptr %2, align 8
  %4 = getelementptr inbounds nuw %"class.cv::Size_", ptr %3, i32 0, i32 0
  store i32 0, ptr %4, align 4, !tbaa !62
  %5 = getelementptr inbounds nuw %"class.cv::Size_", ptr %3, i32 0, i32 1
  store i32 0, ptr %5, align 4, !tbaa !63
  ret void
}

; Function Attrs: mustprogress uwtable
define hidden void @_ZN8SettingsC2Ev(ptr noundef nonnull align 4 dereferenceable(36) %0) unnamed_addr #7 align 2 {
  %2 = alloca ptr, align 8
  %3 = alloca %"class.cv::Size_", align 4
  %4 = alloca %"class.cv::Size_", align 4
  store ptr %0, ptr %2, align 8, !tbaa !58
  %5 = load ptr, ptr %2, align 8
  %6 = getelementptr inbounds nuw %struct.Settings, ptr %5, i32 0, i32 1
  call void @_ZN2cv5Size_IiEC2Ev(ptr noundef nonnull align 4 dereferenceable(8) %6)
  %7 = getelementptr inbounds nuw %struct.Settings, ptr %5, i32 0, i32 2
  call void @_ZN2cv5Size_IiEC2Ev(ptr noundef nonnull align 4 dereferenceable(8) %7)
  %8 = getelementptr inbounds nuw %struct.Settings, ptr %5, i32 0, i32 3
  call void @_ZN2cv5Size_IiEC2Ev(ptr noundef nonnull align 4 dereferenceable(8) %8)
  %9 = getelementptr inbounds nuw %struct.Settings, ptr %5, i32 0, i32 0
  store i32 0, ptr %9, align 4, !tbaa !28
  call void @llvm.lifetime.start.p0(i64 8, ptr %3) #3
  call void @_ZN2cv5Size_IiEC2Eii(ptr noundef nonnull align 4 dereferenceable(8) %3, i32 noundef 13, i32 noundef 9)
  %10 = getelementptr inbounds nuw %struct.Settings, ptr %5, i32 0, i32 1
  call void @llvm.memcpy.p0.p0.i64(ptr align 4 %10, ptr align 4 %3, i64 8, i1 false), !tbaa.struct !23
  call void @llvm.lifetime.end.p0(i64 8, ptr %3) #3
  call void @llvm.lifetime.start.p0(i64 8, ptr %4) #3
  call void @_ZN2cv5Size_IiEC2Eii(ptr noundef nonnull align 4 dereferenceable(8) %4, i32 noundef 11, i32 noundef 11)
  %11 = getelementptr inbounds nuw %struct.Settings, ptr %5, i32 0, i32 2
  call void @llvm.memcpy.p0.p0.i64(ptr align 4 %11, ptr align 4 %4, i64 8, i1 false), !tbaa.struct !23
  call void @llvm.lifetime.end.p0(i64 8, ptr %4) #3
  %12 = getelementptr inbounds nuw %struct.Settings, ptr %5, i32 0, i32 4
  store float 5.000000e+01, ptr %12, align 4, !tbaa !24
  %13 = getelementptr inbounds nuw %struct.Settings, ptr %5, i32 0, i32 5
  store i32 25, ptr %13, align 4, !tbaa !29
  ret void
}