; Function Attrs: mustprogress nofree norecurse nosync nounwind willreturn memory(argmem: write) uwtable
define hidden void @_ZN8SettingsC2Ev(ptr noundef nonnull writeonly align 4 captures(none) dereferenceable(36) initializes((0, 36)) %0) unnamed_addr #10 align 2 {
  %2 = getelementptr inbounds nuw i8, ptr %0, i64 4
  %3 = getelementptr inbounds nuw i8, ptr %0, i64 12
  tail call void @llvm.memset.p0.i64(ptr noundef nonnull align 4 dereferenceable(28) %0, i8 0, i64 28, i1 false)
  store i64 38654705677, ptr %2, align 4
  store i64 47244640267, ptr %3, align 4
  %4 = getelementptr inbounds nuw i8, ptr %0, i64 28
  store float 5.000000e+01, ptr %4, align 4, !tbaa !4
  %5 = getelementptr inbounds nuw i8, ptr %0, i64 32
  store i32 25, ptr %5, align 4, !tbaa !11
  ret void
}